target datalayout = "e-m:e-p270:32:32-p271:32:32-p272:64:64-i64:64-i128:128-f80:128-n8:16:32:64-S128"
target triple = "x86_64-pc-linux-gnu"

%struct._packet_info = type { ptr, ptr, i32, i32, %struct.nstime_t, %struct.nstime_t, %struct.nstime_t, i8, ptr, ptr, ptr, ptr, %struct._address, %struct._address, %struct._address, %struct._address, %struct._address, %struct._address, i32, ptr, i8, [3 x i8], %struct.anon, i32, i32, i32, i32, ptr, i8, ptr, ptr, i16, i16, i32, i32, i16, i32, i32, ptr, ptr, ptr, i8, i8, i16, i16, i16, i32, i16, i16, ptr, ptr, ptr, ptr, ptr, i32, i32 }
%struct.nstime_t = type { i64, i32 }
%struct._address = type { i32, i32, ptr, ptr }
%struct.anon = type { i8, [3 x i8] }
%struct.nano_session_state = type { i32, i32 }

@proto_nano = internal global i32 0, align 4
@nano_tcp_handle = internal global ptr null, align 8

; Function Attrs: null_pointer_is_valid sspstrong uwtable
define internal zeroext i1 @dissect_nano_heur_tcp(ptr noundef %0, ptr noundef %1, ptr noundef %2, ptr noundef %3) #0 {
  %5 = alloca i1, align 1
  %6 = alloca ptr, align 8
  %7 = alloca ptr, align 8
  %8 = alloca ptr, align 8
  %9 = alloca ptr, align 8
  %10 = alloca ptr, align 8
  %11 = alloca ptr, align 8
  %12 = alloca i32, align 4
  store ptr %0, ptr %6, align 8
  store ptr %1, ptr %7, align 8
  store ptr %2, ptr %8, align 8
  store ptr %3, ptr %9, align 8
  call void @llvm.lifetime.start.p0(i64 8, ptr %10) #8
  call void @llvm.lifetime.start.p0(i64 8, ptr %11) #8
  %13 = load ptr, ptr %7, align 8
  %14 = load ptr, ptr %6, align 8
  %15 = load ptr, ptr %9, align 8
  %16 = call zeroext i1 @test_nano(ptr noundef %13, ptr noundef %14, i32 noundef 0, ptr noundef %15)
  br i1 %16, label %18, label %17

17:                                               ; preds = %4
  store i1 false, ptr %5, align 1
  store i32 1, ptr %12, align 4
  br label %47

18:                                               ; preds = %4
  %19 = load ptr, ptr %7, align 8
  %20 = call ptr @find_or_create_conversation(ptr noundef %19)
  store ptr %20, ptr %10, align 8
  %21 = load ptr, ptr %10, align 8
  %22 = load ptr, ptr @nano_tcp_handle, align 8
  call void @conversation_set_dissector(ptr noundef %21, ptr noundef %22)
  %23 = load ptr, ptr %10, align 8
  %24 = load i32, ptr @proto_nano, align 4
  %25 = call ptr @conversation_get_proto_data(ptr noundef %23, i32 noundef %24)
  store ptr %25, ptr %11, align 8
  %26 = load ptr, ptr %11, align 8
  %27 = icmp ne ptr %26, null
  br i1 %27, label %41, label %28

28:                                               ; preds = %18
  %29 = call ptr @wmem_file_scope()
  %30 = call noalias ptr @wmem_alloc0(ptr noundef %29, i64 noundef 8) #9
  store ptr %30, ptr %11, align 8
  %31 = load ptr, ptr %11, align 8
  %32 = getelementptr inbounds nuw %struct.nano_session_state, ptr %31, i32 0, i32 0
  store i32 0, ptr %32, align 4
  %33 = load ptr, ptr %7, align 8
  %34 = getelementptr inbounds nuw %struct._packet_info, ptr %33, i32 0, i32 25
  %35 = load i32, ptr %34, align 8
  %36 = load ptr, ptr %11, align 8
  %37 = getelementptr inbounds nuw %struct.nano_session_state, ptr %36, i32 0, i32 1
  store i32 %35, ptr %37, align 4
  %38 = load ptr, ptr %10, align 8
  %39 = load i32, ptr @proto_nano, align 4
  %40 = load ptr, ptr %11, align 8
  call void @conversation_add_proto_data(ptr noundef %38, i32 noundef %39, ptr noundef %40)
  br label %41

41:                                               ; preds = %28, %18
  %42 = load ptr, ptr %6, align 8
  %43 = load ptr, ptr %7, align 8
  %44 = load ptr, ptr %8, align 8
  %45 = load ptr, ptr %9, align 8
  %46 = call i32 @dissect_nano_tcp(ptr noundef %42, ptr noundef %43, ptr noundef %44, ptr noundef %45)
  store i1 true, ptr %5, align 1
  store i32 1, ptr %12, align 4
  br label %47

47:                                               ; preds = %41, %17
  call void @llvm.lifetime.end.p0(i64 8, ptr %11) #8
  call void @llvm.lifetime.end.p0(i64 8, ptr %10) #8
  %48 = load i1, ptr %5, align 1
  ret i1 %48
}