; Function Attrs: null_pointer_is_valid sspstrong uwtable
define internal noundef zeroext i1 @dissect_nano_heur_tcp(ptr noundef %0, ptr noundef %1, ptr noundef %2, ptr readnone captures(none) %3) #0 {
  %5 = tail call fastcc zeroext i1 @test_nano(ptr noundef %0)
  br i1 %5, label %6, label %20

6:                                                ; preds = %4
  %7 = tail call ptr @find_or_create_conversation(ptr noundef %1)
  %8 = load ptr, ptr @nano_tcp_handle, align 8
  tail call void @conversation_set_dissector(ptr noundef %7, ptr noundef %8)
  %9 = load i32, ptr @proto_nano, align 4
  %10 = tail call ptr @conversation_get_proto_data(ptr noundef %7, i32 noundef %9)
  %.not = icmp eq ptr %10, null
  br i1 %.not, label %11, label %18

11:                                               ; preds = %6
  %12 = tail call ptr @wmem_file_scope()
  %13 = tail call noalias dereferenceable_or_null(8) ptr @wmem_alloc0(ptr noundef %12, i64 noundef 8) #6
  store i32 0, ptr %13, align 4
  %14 = getelementptr inbounds nuw i8, ptr %1, i64 288
  %15 = load i32, ptr %14, align 8
  %16 = getelementptr inbounds nuw i8, ptr %13, i64 4
  store i32 %15, ptr %16, align 4
  %17 = load i32, ptr @proto_nano, align 4
  tail call void @conversation_add_proto_data(ptr noundef %7, i32 noundef %17, ptr noundef %13)
  br label %18

18:                                               ; preds = %11, %6
  %19 = tail call i32 @dissect_nano_tcp(ptr noundef %0, ptr noundef %1, ptr noundef %2, ptr poison)
  br label %20

20:                                               ; preds = %4, %18
  ret i1 %5
}